; Function Attrs: mustprogress uwtable
define hidden void @_ZNK4cvc58internal4prop11TheoryProxy27getLearnedZeroLevelLiteralsENS_5modes14LearnedLitTypeE(ptr dead_on_unwind noalias writable sret(%"class.std::vector.453") align 8 %0, ptr noundef nonnull readonly align 8 captures(none) dereferenceable(521) %1, i32 noundef %2) local_unnamed_addr #4 align 2 {
  %4 = getelementptr inbounds nuw i8, ptr %1, i64 448
  %5 = load ptr, ptr %4, align 8, !tbaa !336
  %.not = icmp eq ptr %5, null
  br i1 %.not, label %7, label %6

6:                                                ; preds = %3
  tail call void @_ZNK4cvc58internal4prop16ZeroLevelLearner27getLearnedZeroLevelLiteralsENS_5modes14LearnedLitTypeE(ptr dead_on_unwind writable sret(%"class.std::vector.453") align 8 %0, ptr noundef nonnull align 8 dereferenceable(1320) %5, i32 noundef %2)
  br label %8

7:                                                ; preds = %3
  tail call void @llvm.memset.p0.i64(ptr noundef nonnull align 8 dereferenceable(24) %0, i8 0, i64 24, i1 false)
  br label %8

8:                                                ; preds = %7, %6
  ret void
}